; ModuleID = '56/2360.c'
source_filename = "56/2360.c"
target datalayout = "e-m:e-p270:32:32-p271:32:32-p272:64:64-i64:64-f80:128-n8:16:32:64-S128"
target triple = "x86_64-pc-linux-gnu"

@.str = private unnamed_addr constant [3 x i8] c"%d\00", align 1

; Function Attrs: noinline nounwind uwtable
define dso_local void @main() #0 {
  %1 = alloca i32, align 4
  %2 = alloca i32, align 4
  store i32 0, i32* %2, align 4
  %3 = call i32 (i8*, ...) @__isoc99_scanf(i8* getelementptr inbounds ([3 x i8], [3 x i8]* @.str, i64 0, i64 0), i32* %1)
  br label %4

4:                                                ; preds = %7, %0
  %5 = load i32, i32* %1, align 4
  %6 = icmp ne i32 %5, 0
  br i1 %6, label %7, label %18

7:                                                ; preds = %4
  %8 = load i32, i32* %2, align 4
  %9 = mul nsw i32 %8, 10
  %10 = load i32, i32* %1, align 4
  %11 = srem i32 %10, 10
  %12 = add nsw i32 %9, %11
  store i32 %12, i32* %2, align 4
  %13 = load i32, i32* %1, align 4
  %14 = load i32, i32* %1, align 4
  %15 = srem i32 %14, 10
  %16 = sub nsw i32 %13, %15
  %17 = sdiv i32 %16, 10
  store i32 %17, i32* %1, align 4
  br label %4

18:                                               ; preds = %4
  %19 = load i32, i32* %2, align 4
  %20 = call i32 (i8*, ...) @printf(i8* getelementptr inbounds ([3 x i8], [3 x i8]* @.str, i64 0, i64 0), i32 %19)
  ret void
}

declare dso_local i32 @__isoc99_scanf(i8*, ...) #1

declare dso_local i32 @printf(i8*, ...) #1


!llvm.module.flags = !{!0}
!llvm.ident = !{!1}

!0 = !{i32 1, !"wchar_size", i32 4}
!1 = !{!"clang version 10.0.0-4ubuntu1 "}
